(dp0
S'uc_ann'
p1
NsS'version'
p2
I2
sS'combined'
p3
(dp4
sS'annotations'
p5
(dp6
sS'pitch'
p7
(dp8
sS'envelope'
p9
(dp10
sS'uc_source'
p11
S'tocopatch'
p12
sS'fhr_source'
p13
S'LowCostCTG'
p14
sS'uc'
p15
(dp16
s.