(dp0
S'1198'
p1
(dp2
S'date'
p3
F1532268243.236035
sS'duration'
p4
F65.0
sS'uuid'
p5
g1
sS'comment'
p6
S'pH: 7.03  Apgar5: 4  Apgar1: 3'
p7
sS'name'
p8
g1
ssS'1370'
p9
(dp10
g3
F1532268243.633446
sg4
F75.0
sg5
g9
sg6
S'pH: 7.03  Apgar5: 6  Apgar1: 5'
p11
sg8
g9
ssS'1406'
p12
(dp13
g3
F1532268243.692796
sg4
F80.0
sg5
g12
sg6
S'pH: 7.07  Apgar5: 6  Apgar1: 4'
p14
sg8
g12
ssS'1359'
p15
(dp16
g3
F1532268243.546384
sg4
F70.0
sg5
g15
sg6
S'pH: 6.95  Apgar5: 6  Apgar1: 3'
p17
sg8
g15
ssS'1361'
p18
(dp19
g3
F1532268243.586158
sg4
F70.0
sg5
g18
sg6
S'pH: 7.02  Apgar5: 6  Apgar1: 1'
p20
sg8
g18
ssS'1158'
p21
(dp22
g3
F1532268243.087763
sg4
F85.0
sg5
g21
sg6
S'pH: 6.87  Apgar5: 4  Apgar1: 3'
p23
sg8
g21
ss.